target datalayout = "e-m:e-p270:32:32-p271:32:32-p272:64:64-i64:64-i128:128-f80:128-n8:16:32:64-S128"
target triple = "x86_64-pc-linux-gnu"

%struct.ossl_quic_tx_packetiser_st = type { %struct.ossl_quic_tx_packetiser_args_st, ptr, i64, ptr, ptr, %struct.quic_fifd_st, [3 x i64], %struct.OSSL_TIME, i64, i16, %struct.ossl_quic_frame_conn_close_st, i64, i64, [4 x %struct.txp_el], ptr, ptr, ptr, ptr, ptr }
%struct.ossl_quic_tx_packetiser_args_st = type { %struct.quic_conn_id_st, %struct.quic_conn_id_st, %union.bio_addr_st, i32, ptr, ptr, ptr, ptr, ptr, ptr, ptr, ptr, ptr, ptr, ptr, ptr, ptr, ptr, ptr, i32, [3 x ptr] }
%struct.quic_conn_id_st = type { i8, [20 x i8] }
%union.bio_addr_st = type { %struct.sockaddr_in6, [84 x i8] }
%struct.sockaddr_in6 = type { i16, i16, i32, %struct.in6_addr, i32 }
%struct.in6_addr = type { %union.anon }
%union.anon = type { [4 x i32] }
%struct.quic_fifd_st = type { ptr, ptr, ptr, ptr, ptr, ptr, ptr, ptr, ptr, ptr, ptr, ptr, ptr }
%struct.OSSL_TIME = type { i64 }
%struct.ossl_quic_frame_conn_close_st = type { i8, i64, i64, ptr, i64 }
%struct.txp_el = type { ptr, i64, ptr, i64 }
%struct.tx_helper = type { ptr, i64, i64, i64, i64, i64, i32, i8, %struct.anon }
%struct.anon = type { ptr, %struct.wpacket_st, i8 }
%struct.wpacket_st = type { ptr, ptr, i64, i64, i64, ptr, i8 }

; Function Attrs: nounwind uwtable
define internal i64 @tx_helper_get_space_left(ptr noundef %0) #0 {
  %2 = alloca ptr, align 8
  store ptr %0, ptr %2, align 8, !tbaa !148
  %3 = load ptr, ptr %2, align 8, !tbaa !148
  %4 = getelementptr inbounds nuw %struct.tx_helper, ptr %3, i32 0, i32 1
  %5 = load i64, ptr %4, align 8, !tbaa !215
  %6 = load ptr, ptr %2, align 8, !tbaa !148
  %7 = getelementptr inbounds nuw %struct.tx_helper, ptr %6, i32 0, i32 7
  %8 = load i8, ptr %7, align 4
  %9 = and i8 %8, 1
  %10 = zext i8 %9 to i32
  %11 = icmp ne i32 %10, 0
  br i1 %11, label %12, label %13

12:                                               ; preds = %1
  br label %17

13:                                               ; preds = %1
  %14 = load ptr, ptr %2, align 8, !tbaa !148
  %15 = getelementptr inbounds nuw %struct.tx_helper, ptr %14, i32 0, i32 4
  %16 = load i64, ptr %15, align 8, !tbaa !216
  br label %17

17:                                               ; preds = %13, %12
  %18 = phi i64 [ 0, %12 ], [ %16, %13 ]
  %19 = sub i64 %5, %18
  %20 = load ptr, ptr %2, align 8, !tbaa !148
  %21 = getelementptr inbounds nuw %struct.tx_helper, ptr %20, i32 0, i32 2
  %22 = load i64, ptr %21, align 8, !tbaa !153
  %23 = sub i64 %19, %22
  ret i64 %23
}

; Function Attrs: nounwind uwtable
define internal ptr @tx_helper_begin(ptr noundef %0) #0 {
  %2 = alloca ptr, align 8
  %3 = alloca ptr, align 8
  %4 = alloca i64, align 8
  %5 = alloca i64, align 8
  %6 = alloca ptr, align 8
  %7 = alloca ptr, align 8
  %8 = alloca i32, align 4
  store ptr %0, ptr %3, align 8, !tbaa !148
  call void @llvm.lifetime.start.p0(i64 8, ptr %4) #7
  call void @llvm.lifetime.start.p0(i64 8, ptr %5) #7
  call void @llvm.lifetime.start.p0(i64 8, ptr %6) #7
  call void @llvm.lifetime.start.p0(i64 8, ptr %7) #7
  %9 = load ptr, ptr %3, align 8, !tbaa !148
  %10 = getelementptr inbounds nuw %struct.tx_helper, ptr %9, i32 0, i32 0
  %11 = load ptr, ptr %10, align 8, !tbaa !213
  %12 = getelementptr inbounds nuw %struct.ossl_quic_tx_packetiser_st, ptr %11, i32 0, i32 13
  %13 = load ptr, ptr %3, align 8, !tbaa !148
  %14 = getelementptr inbounds nuw %struct.tx_helper, ptr %13, i32 0, i32 6
  %15 = load i32, ptr %14, align 8, !tbaa !214
  %16 = zext i32 %15 to i64
  %17 = getelementptr inbounds nuw [4 x %struct.txp_el], ptr %12, i64 0, i64 %16
  store ptr %17, ptr %7, align 8, !tbaa !223
  %18 = load ptr, ptr %3, align 8, !tbaa !148
  %19 = getelementptr inbounds nuw %struct.tx_helper, ptr %18, i32 0, i32 8
  %20 = getelementptr inbounds nuw %struct.anon, ptr %19, i32 0, i32 2
  %21 = load i8, ptr %20, align 8
  %22 = and i8 %21, 1
  %23 = zext i8 %22 to i32
  %24 = icmp ne i32 %23, 0
  %25 = xor i1 %24, true
  %26 = zext i1 %25 to i32
  %27 = icmp ne i32 %26, 0
  %28 = xor i1 %27, true
  %29 = xor i1 %28, true
  %30 = zext i1 %29 to i32
  %31 = sext i32 %30 to i64
  %32 = call i64 @llvm.expect.i64(i64 %31, i64 1)
  %33 = icmp ne i64 %32, 0
  br i1 %33, label %35, label %34

34:                                               ; preds = %1
  store ptr null, ptr %2, align 8
  store i32 1, ptr %8, align 4
  br label %116

35:                                               ; preds = %1
  %36 = load ptr, ptr %3, align 8, !tbaa !148
  %37 = getelementptr inbounds nuw %struct.tx_helper, ptr %36, i32 0, i32 7
  %38 = load i8, ptr %37, align 4
  %39 = lshr i8 %38, 1
  %40 = and i8 %39, 1
  %41 = zext i8 %40 to i32
  %42 = icmp ne i32 %41, 0
  %43 = xor i1 %42, true
  %44 = zext i1 %43 to i32
  %45 = icmp ne i32 %44, 0
  %46 = xor i1 %45, true
  %47 = xor i1 %46, true
  %48 = zext i1 %47 to i32
  %49 = sext i32 %48 to i64
  %50 = call i64 @llvm.expect.i64(i64 %49, i64 1)
  %51 = icmp ne i64 %50, 0
  br i1 %51, label %53, label %52

52:                                               ; preds = %35
  store ptr null, ptr %2, align 8
  store i32 1, ptr %8, align 4
  br label %116

53:                                               ; preds = %35
  %54 = load ptr, ptr %7, align 8, !tbaa !223
  %55 = getelementptr inbounds nuw %struct.txp_el, ptr %54, i32 0, i32 0
  %56 = load ptr, ptr %55, align 8, !tbaa !78
  %57 = load ptr, ptr %3, align 8, !tbaa !148
  %58 = getelementptr inbounds nuw %struct.tx_helper, ptr %57, i32 0, i32 3
  %59 = load i64, ptr %58, align 8, !tbaa !218
  %60 = getelementptr inbounds nuw i8, ptr %56, i64 %59
  store ptr %60, ptr %6, align 8, !tbaa !81
  %61 = load ptr, ptr %7, align 8, !tbaa !223
  %62 = getelementptr inbounds nuw %struct.txp_el, ptr %61, i32 0, i32 1
  %63 = load i64, ptr %62, align 8, !tbaa !220
  %64 = load ptr, ptr %3, align 8, !tbaa !148
  %65 = getelementptr inbounds nuw %struct.tx_helper, ptr %64, i32 0, i32 3
  %66 = load i64, ptr %65, align 8, !tbaa !218
  %67 = sub i64 %63, %66
  store i64 %67, ptr %5, align 8, !tbaa !28
  %68 = load ptr, ptr %3, align 8, !tbaa !148
  %69 = call i64 @tx_helper_get_space_left(ptr noundef %68)
  store i64 %69, ptr %4, align 8, !tbaa !28
  %70 = load i64, ptr %4, align 8, !tbaa !28
  %71 = load i64, ptr %5, align 8, !tbaa !28
  %72 = icmp ule i64 %70, %71
  %73 = zext i1 %72 to i32
  %74 = icmp ne i32 %73, 0
  %75 = xor i1 %74, true
  %76 = xor i1 %75, true
  %77 = zext i1 %76 to i32
  %78 = sext i32 %77 to i64
  %79 = call i64 @llvm.expect.i64(i64 %78, i64 1)
  %80 = icmp ne i64 %79, 0
  br i1 %80, label %82, label %81

81:                                               ; preds = %53
  store ptr null, ptr %2, align 8
  store i32 1, ptr %8, align 4
  br label %116

82:                                               ; preds = %53
  %83 = load ptr, ptr %3, align 8, !tbaa !148
  %84 = getelementptr inbounds nuw %struct.tx_helper, ptr %83, i32 0, i32 8
  %85 = getelementptr inbounds nuw %struct.anon, ptr %84, i32 0, i32 1
  %86 = load ptr, ptr %6, align 8, !tbaa !81
  %87 = load i64, ptr %5, align 8, !tbaa !28
  %88 = call i32 @WPACKET_init_static_len(ptr noundef %85, ptr noundef %86, i64 noundef %87, i64 noundef 0)
  %89 = icmp ne i32 %88, 0
  br i1 %89, label %91, label %90

90:                                               ; preds = %82
  store ptr null, ptr %2, align 8
  store i32 1, ptr %8, align 4
  br label %116

91:                                               ; preds = %82
  %92 = load ptr, ptr %3, align 8, !tbaa !148
  %93 = getelementptr inbounds nuw %struct.tx_helper, ptr %92, i32 0, i32 8
  %94 = getelementptr inbounds nuw %struct.anon, ptr %93, i32 0, i32 1
  %95 = load i64, ptr %4, align 8, !tbaa !28
  %96 = call i32 @WPACKET_set_max_size(ptr noundef %94, i64 noundef %95)
  %97 = icmp ne i32 %96, 0
  br i1 %97, label %102, label %98

98:                                               ; preds = %91
  %99 = load ptr, ptr %3, align 8, !tbaa !148
  %100 = getelementptr inbounds nuw %struct.tx_helper, ptr %99, i32 0, i32 8
  %101 = getelementptr inbounds nuw %struct.anon, ptr %100, i32 0, i32 1
  call void @WPACKET_cleanup(ptr noundef %101)
  store ptr null, ptr %2, align 8
  store i32 1, ptr %8, align 4
  br label %116

102:                                              ; preds = %91
  %103 = load ptr, ptr %6, align 8, !tbaa !81
  %104 = load ptr, ptr %3, align 8, !tbaa !148
  %105 = getelementptr inbounds nuw %struct.tx_helper, ptr %104, i32 0, i32 8
  %106 = getelementptr inbounds nuw %struct.anon, ptr %105, i32 0, i32 0
  store ptr %103, ptr %106, align 8, !tbaa !219
  %107 = load ptr, ptr %3, align 8, !tbaa !148
  %108 = getelementptr inbounds nuw %struct.tx_helper, ptr %107, i32 0, i32 8
  %109 = getelementptr inbounds nuw %struct.anon, ptr %108, i32 0, i32 2
  %110 = load i8, ptr %109, align 8
  %111 = and i8 %110, -2
  %112 = or i8 %111, 1
  store i8 %112, ptr %109, align 8
  %113 = load ptr, ptr %3, align 8, !tbaa !148
  %114 = getelementptr inbounds nuw %struct.tx_helper, ptr %113, i32 0, i32 8
  %115 = getelementptr inbounds nuw %struct.anon, ptr %114, i32 0, i32 1
  store ptr %115, ptr %2, align 8
  store i32 1, ptr %8, align 4
  br label %116

116:                                              ; preds = %102, %98, %90, %81, %52, %34
  call void @llvm.lifetime.end.p0(i64 8, ptr %7) #7
  call void @llvm.lifetime.end.p0(i64 8, ptr %6) #7
  call void @llvm.lifetime.end.p0(i64 8, ptr %5) #7
  call void @llvm.lifetime.end.p0(i64 8, ptr %4) #7
  %117 = load ptr, ptr %2, align 8
  ret ptr %117
}