; Function Attrs: nounwind uwtable
define internal fastcc noundef ptr @tx_helper_begin(ptr noundef nonnull %0) unnamed_addr #3 {
  %2 = load ptr, ptr %0, align 8, !tbaa !119
  %3 = getelementptr inbounds nuw i8, ptr %2, i64 552
  %4 = getelementptr inbounds nuw i8, ptr %0, i64 48
  %5 = load i32, ptr %4, align 8, !tbaa !120
  %6 = zext i32 %5 to i64
  %7 = getelementptr inbounds nuw [4 x %struct.txp_el], ptr %3, i64 0, i64 %6
  %8 = getelementptr inbounds nuw i8, ptr %0, i64 56
  %9 = getelementptr inbounds nuw i8, ptr %0, i64 120
  %10 = load i8, ptr %9, align 8
  %11 = and i8 %10, 1
  %.not = icmp eq i8 %11, 0
  br i1 %.not, label %12, label %44, !prof !130

12:                                               ; preds = %1
  %13 = getelementptr inbounds nuw i8, ptr %0, i64 52
  %14 = load i8, ptr %13, align 4
  %15 = and i8 %14, 2
  %.not23 = icmp eq i8 %15, 0
  br i1 %.not23, label %16, label %44, !prof !130

16:                                               ; preds = %12
  %17 = load ptr, ptr %7, align 8, !tbaa !75
  %18 = getelementptr inbounds nuw i8, ptr %0, i64 24
  %19 = load i64, ptr %18, align 8, !tbaa !220
  %20 = getelementptr inbounds nuw i8, ptr %17, i64 %19
  %21 = getelementptr inbounds nuw i8, ptr %7, i64 8
  %22 = load i64, ptr %21, align 8, !tbaa !125
  %23 = sub i64 %22, %19
  %24 = getelementptr inbounds nuw i8, ptr %0, i64 8
  %25 = load i64, ptr %24, align 8, !tbaa !121
  %26 = and i8 %14, 1
  %.not.i = icmp eq i8 %26, 0
  br i1 %.not.i, label %27, label %tx_helper_get_space_left.exit

27:                                               ; preds = %16
  %28 = getelementptr inbounds nuw i8, ptr %0, i64 32
  %29 = load i64, ptr %28, align 8, !tbaa !122
  br label %tx_helper_get_space_left.exit

tx_helper_get_space_left.exit:                    ; preds = %16, %27
  %30 = phi i64 [ %29, %27 ], [ 0, %16 ]
  %31 = getelementptr inbounds nuw i8, ptr %0, i64 16
  %32 = load i64, ptr %31, align 8, !tbaa !129
  %33 = add i64 %30, %32
  %34 = sub i64 %25, %33
  %.not24 = icmp ugt i64 %34, %23
  br i1 %.not24, label %44, label %35, !prof !161

35:                                               ; preds = %tx_helper_get_space_left.exit
  %36 = getelementptr inbounds nuw i8, ptr %0, i64 64
  %37 = tail call i32 @WPACKET_init_static_len(ptr noundef nonnull %36, ptr noundef %20, i64 noundef %23, i64 noundef 0) #10
  %.not25 = icmp eq i32 %37, 0
  br i1 %.not25, label %44, label %38

38:                                               ; preds = %35
  %39 = tail call i32 @WPACKET_set_max_size(ptr noundef nonnull %36, i64 noundef %34) #10
  %.not26 = icmp eq i32 %39, 0
  br i1 %.not26, label %40, label %41

40:                                               ; preds = %38
  tail call void @WPACKET_cleanup(ptr noundef nonnull %36) #10
  br label %44

41:                                               ; preds = %38
  store ptr %20, ptr %8, align 8, !tbaa !124
  %42 = load i8, ptr %9, align 8
  %43 = or i8 %42, 1
  store i8 %43, ptr %9, align 8
  br label %44

44:                                               ; preds = %35, %tx_helper_get_space_left.exit, %12, %1, %41, %40
  %.0 = phi ptr [ %36, %41 ], [ null, %40 ], [ null, %1 ], [ null, %12 ], [ null, %tx_helper_get_space_left.exit ], [ null, %35 ]
  ret ptr %.0
}